target datalayout = "e-m:e-p270:32:32-p271:32:32-p272:64:64-i64:64-i128:128-f80:128-n8:16:32:64-S128"
target triple = "x86_64-pc-linux-gnu"

%struct.H5FL_reg_head_t = type { i8, i32, i32, ptr, i64, ptr }
%struct.H5T_t = type { %struct.H5O_shared_t, ptr, %struct.H5O_loc_t, %struct.H5G_name_t, ptr }
%struct.H5O_shared_t = type { i32, ptr, i32, %union.anon }
%union.anon = type { %struct.H5O_mesg_loc_t }
%struct.H5O_mesg_loc_t = type { i32, i64 }
%struct.H5O_loc_t = type { ptr, i64, i8 }
%struct.H5G_name_t = type { ptr, ptr, i32 }
%struct.H5T_shared_t = type { i64, i32, i32, i64, i32, i8, ptr, ptr, %union.anon.0 }
%union.anon.0 = type { %struct.H5T_array_t }
%struct.H5T_array_t = type { i64, i32, [32 x i64] }

@H5_H5T_t_reg_free_list = global %struct.H5FL_reg_head_t { i8 0, i32 0, i32 0, ptr @.str, i64 104, ptr null }, align 8
@H5_H5T_shared_t_reg_free_list = global %struct.H5FL_reg_head_t { i8 0, i32 0, i32 0, ptr @.str.1, i64 320, ptr null }, align 8
@.str.2 = private unnamed_addr constant [97 x i8] c"generated/home/dtcxzyw/WorkSpace/Projects/compilers/llvm-opt-benchmark/bench/hdf5/hdf5/src/H5T.c\00", align 1
@H5E_DATATYPE_g = external global i64, align 8
@H5E_CANTFREE_g = external global i64, align 8
@__func__.H5T_close_real = private unnamed_addr constant [15 x i8] c"H5T_close_real\00", align 1
@.str.309 = private unnamed_addr constant [24 x i8] c"unable to free datatype\00", align 1

; Function Attrs: nounwind uwtable
define i32 @H5T_close_real(ptr noundef %0) #0 {
  %2 = alloca ptr, align 8
  %3 = alloca i32, align 4
  %4 = alloca i8, align 1
  store ptr %0, ptr %2, align 8
  store i32 0, ptr %3, align 4
  store i8 0, ptr %4, align 1
  %5 = load ptr, ptr %2, align 8
  %6 = getelementptr inbounds %struct.H5T_t, ptr %5, i32 0, i32 1
  %7 = load ptr, ptr %6, align 8
  %8 = icmp ne ptr %7, null
  br i1 %8, label %9, label %42

9:                                                ; preds = %1
  %10 = load ptr, ptr %2, align 8
  %11 = getelementptr inbounds %struct.H5T_t, ptr %10, i32 0, i32 1
  %12 = load ptr, ptr %11, align 8
  %13 = getelementptr inbounds %struct.H5T_shared_t, ptr %12, i32 0, i32 1
  %14 = load i32, ptr %13, align 8
  %15 = icmp ne i32 %14, 4
  br i1 %15, label %16, label %42

16:                                               ; preds = %9
  %17 = load ptr, ptr %2, align 8
  %18 = call i32 @H5T__free(ptr noundef %17)
  %19 = icmp slt i32 %18, 0
  br i1 %19, label %20, label %35

20:                                               ; preds = %16
  br label %21

21:                                               ; preds = %20
  br label %22

22:                                               ; preds = %21
  br label %23

23:                                               ; preds = %22
  %24 = load i64, ptr @H5E_DATATYPE_g, align 8
  %25 = load i64, ptr @H5E_CANTFREE_g, align 8
  %26 = call i32 (ptr, ptr, i32, i64, i64, ptr, ...) @H5E_printf_stack(ptr noundef @.str.2, ptr noundef @__func__.H5T_close_real, i32 noundef 4160, i64 noundef %24, i64 noundef %25, ptr noundef @.str.309)
  br label %27

27:                                               ; preds = %23
  store i8 1, ptr %4, align 1
  %28 = load i8, ptr %4, align 1
  %29 = trunc i8 %28 to i1
  %30 = zext i1 %29 to i8
  store i8 %30, ptr %4, align 1
  br label %31

31:                                               ; preds = %27
  br label %32

32:                                               ; preds = %31
  store i32 -1, ptr %3, align 4
  br label %49

33:                                               ; No predecessors!
  br label %34

34:                                               ; preds = %33
  br label %35

35:                                               ; preds = %34, %16
  %36 = load ptr, ptr %2, align 8
  %37 = getelementptr inbounds %struct.H5T_t, ptr %36, i32 0, i32 1
  %38 = load ptr, ptr %37, align 8
  %39 = call ptr @H5FL_reg_free(ptr noundef @H5_H5T_shared_t_reg_free_list, ptr noundef %38)
  %40 = load ptr, ptr %2, align 8
  %41 = getelementptr inbounds %struct.H5T_t, ptr %40, i32 0, i32 1
  store ptr %39, ptr %41, align 8
  br label %46

42:                                               ; preds = %9, %1
  %43 = load ptr, ptr %2, align 8
  %44 = getelementptr inbounds %struct.H5T_t, ptr %43, i32 0, i32 3
  %45 = call i32 @H5G_name_free(ptr noundef %44)
  br label %46

46:                                               ; preds = %42, %35
  %47 = load ptr, ptr %2, align 8
  %48 = call ptr @H5FL_reg_free(ptr noundef @H5_H5T_t_reg_free_list, ptr noundef %47)
  store ptr %48, ptr %2, align 8
  br label %49

49:                                               ; preds = %46, %32
  %50 = load i32, ptr %3, align 4
  ret i32 %50
}