; Function Attrs: nounwind uwtable
define range(i32 -1, 1) i32 @H5T_close_real(ptr noundef %0) local_unnamed_addr #0 {
  %2 = getelementptr inbounds i8, ptr %0, i64 40
  %3 = load ptr, ptr %2, align 8
  %.not = icmp eq ptr %3, null
  br i1 %.not, label %17, label %4

4:                                                ; preds = %1
  %5 = getelementptr inbounds i8, ptr %3, i64 8
  %6 = load i32, ptr %5, align 8
  %.not9 = icmp eq i32 %6, 4
  br i1 %.not9, label %17, label %7

7:                                                ; preds = %4
  %8 = tail call i32 @H5T__free(ptr noundef nonnull %0)
  %9 = icmp slt i32 %8, 0
  br i1 %9, label %10, label %14

10:                                               ; preds = %7
  %11 = load i64, ptr @H5E_DATATYPE_g, align 8
  %12 = load i64, ptr @H5E_CANTFREE_g, align 8
  %13 = tail call i32 (ptr, ptr, i32, i64, i64, ptr, ...) @H5E_printf_stack(ptr noundef nonnull @.str.2, ptr noundef nonnull @__func__.H5T_close_real, i32 noundef 4160, i64 noundef %11, i64 noundef %12, ptr noundef nonnull @.str.309) #17
  br label %22

14:                                               ; preds = %7
  %15 = load ptr, ptr %2, align 8
  %16 = tail call ptr @H5FL_reg_free(ptr noundef nonnull @H5_H5T_shared_t_reg_free_list, ptr noundef %15) #17
  store ptr %16, ptr %2, align 8
  br label %20

17:                                               ; preds = %4, %1
  %18 = getelementptr inbounds i8, ptr %0, i64 72
  %19 = tail call i32 @H5G_name_free(ptr noundef nonnull %18) #17
  br label %20

20:                                               ; preds = %17, %14
  %21 = tail call ptr @H5FL_reg_free(ptr noundef nonnull @H5_H5T_t_reg_free_list, ptr noundef nonnull %0) #17
  br label %22

22:                                               ; preds = %20, %10
  %.0 = phi i32 [ -1, %10 ], [ 0, %20 ]
  ret i32 %.0
}